; Function Attrs: nounwind uwtable
define i32 @OSSL_STORE_LOADER_names_do_all(ptr noundef readonly captures(address_is_null) %0, ptr noundef %1, ptr noundef %2) local_unnamed_addr #2 {
  %4 = icmp eq ptr %0, null
  br i1 %4, label %14, label %5

5:                                                ; preds = %3
  %6 = getelementptr inbounds nuw i8, ptr %0, i64 96
  %7 = load ptr, ptr %6, align 8, !tbaa !3
  %.not = icmp eq ptr %7, null
  br i1 %.not, label %14, label %8

8:                                                ; preds = %5
  %9 = tail call ptr @ossl_provider_libctx(ptr noundef nonnull %7) #6
  %10 = tail call ptr @ossl_namemap_stored(ptr noundef %9) #6
  %11 = getelementptr inbounds nuw i8, ptr %0, i64 104
  %12 = load i32, ptr %11, align 8, !tbaa !25
  %13 = tail call i32 @ossl_namemap_doall_names(ptr noundef %10, i32 noundef %12, ptr noundef %1, ptr noundef %2) #6
  br label %14

14:                                               ; preds = %5, %3, %8
  %.0 = phi i32 [ %13, %8 ], [ 0, %3 ], [ 1, %5 ]
  ret i32 %.0
}